target datalayout = "e-m:e-p270:32:32-p271:32:32-p272:64:64-i64:64-i128:128-f80:128-n8:16:32:64-S128"
target triple = "x86_64-pc-linux-gnu"

%struct.mbedtls_ssl_context = type { ptr, i32, i32, i32, i32, i32, ptr, ptr, ptr, ptr, ptr, ptr, ptr, ptr, ptr, ptr, ptr, ptr, ptr, ptr, ptr, ptr, ptr, ptr, ptr, ptr, ptr, ptr, ptr, ptr, ptr, ptr, ptr, i32, i64, i64, i16, i64, i64, i64, i64, i32, i32, i8, i8, i32, i8, ptr, ptr, ptr, ptr, ptr, ptr, ptr, i32, i64, i64, [8 x i8], i16, ptr, ptr, ptr, i64, i32, i64, [12 x i8], [12 x i8], [32 x i8], i8, i8, ptr, ptr, %union.mbedtls_ssl_user_data_t }
%union.mbedtls_ssl_user_data_t = type { i64 }
%struct.mbedtls_ssl_config = type { i32, i32, i8, i8, i8, i8, i8, i8, i8, i8, i8, i8, i16, i8, i8, i8, ptr, i32, ptr, ptr, ptr, ptr, ptr, ptr, ptr, ptr, ptr, ptr, ptr, ptr, ptr, ptr, ptr, ptr, ptr, ptr, ptr, i64, ptr, ptr, ptr, ptr, ptr, ptr, ptr, ptr, %struct.mbedtls_mpi, %struct.mbedtls_mpi, ptr, i64, ptr, i64, ptr, i32, i32, i32, i32, [8 x i8], i32, i32, %union.mbedtls_ssl_user_data_t, ptr, ptr }
%struct.mbedtls_mpi = type { ptr, i16, i16 }
%struct.mbedtls_ssl_handshake_params = type { i8, i8, i8, i8, i8, i32, i8, i8, i8, i8, ptr, ptr, ptr, ptr, ptr, i8, i8, i8, i8, i16, i16, [20 x i16], ptr, ptr, %struct.mbedtls_dhm_context, %struct.mbedtls_ecdh_context, i16, i64, i32, i8, [1024 x i8], i64, ptr, ptr, i64, i16, ptr, ptr, ptr, ptr, %struct.anon, ptr, i16, i8, i32, i32, i32, ptr, ptr, ptr, i32, ptr, [8 x i8], i8, [32 x i8], i8, i16, %struct.mbedtls_md_context_t, %struct.mbedtls_md_context_t, i16, i8, %union.anon.1, [64 x i8], [1076 x i8], i64, i32, i32, i8, ptr, ptr, %union.anon.4, %struct.mbedtls_ssl_tls13_handshake_secrets, ptr, i64, ptr }
%struct.mbedtls_dhm_context = type { %struct.mbedtls_mpi, %struct.mbedtls_mpi, %struct.mbedtls_mpi, %struct.mbedtls_mpi, %struct.mbedtls_mpi, %struct.mbedtls_mpi, %struct.mbedtls_mpi, %struct.mbedtls_mpi, %struct.mbedtls_mpi, %struct.mbedtls_mpi }
%struct.mbedtls_ecdh_context = type { i8, i32, i32, %union.anon }
%union.anon = type { %struct.mbedtls_ecdh_context_mbed }
%struct.mbedtls_ecdh_context_mbed = type { %struct.mbedtls_ecp_group, %struct.mbedtls_mpi, %struct.mbedtls_ecp_point, %struct.mbedtls_ecp_point, %struct.mbedtls_mpi }
%struct.mbedtls_ecp_group = type { i32, %struct.mbedtls_mpi, %struct.mbedtls_mpi, %struct.mbedtls_mpi, %struct.mbedtls_ecp_point, %struct.mbedtls_mpi, i64, i64, i32, ptr, ptr, ptr, ptr, ptr, i64 }
%struct.mbedtls_ecp_point = type { %struct.mbedtls_mpi, %struct.mbedtls_mpi, %struct.mbedtls_mpi }
%struct.anon = type { i64, i8, [4 x %struct.mbedtls_ssl_hs_buffer], %struct.anon.0 }
%struct.mbedtls_ssl_hs_buffer = type { i8, ptr, i64 }
%struct.anon.0 = type { ptr, i64, i32 }
%struct.mbedtls_md_context_t = type { ptr, ptr, ptr }
%union.anon.1 = type { %struct.anon.2 }
%struct.anon.2 = type { i8, [64 x i8], i64 }
%union.anon.4 = type { [64 x i8] }
%struct.mbedtls_ssl_tls13_handshake_secrets = type { [64 x i8], [64 x i8] }

@.str = private unnamed_addr constant [130 x i8] c"generated/home/dtcxzyw/WorkSpace/Projects/compilers/llvm-opt-benchmark/bench/lief/bench_build/mbed_src/library/ssl_tls12_client.c\00", align 1
@.str.94 = private unnamed_addr constant [24 x i8] c"mbedtls_dhm_read_params\00", align 1
@.str.95 = private unnamed_addr constant [30 x i8] c"DHM prime too short: %zu < %u\00", align 1
@.str.96 = private unnamed_addr constant [8 x i8] c"DHM: P \00", align 1
@.str.97 = private unnamed_addr constant [8 x i8] c"DHM: G \00", align 1
@.str.98 = private unnamed_addr constant [8 x i8] c"DHM: GY\00", align 1

; Function Attrs: nounwind uwtable
define internal i32 @ssl_parse_server_dh_params(ptr noundef %0, ptr noundef %1, ptr noundef %2) #0 {
  %4 = alloca i32, align 4
  %5 = alloca ptr, align 8
  %6 = alloca ptr, align 8
  %7 = alloca ptr, align 8
  %8 = alloca i32, align 4
  %9 = alloca i64, align 8
  %10 = alloca i32, align 4
  store ptr %0, ptr %5, align 8, !tbaa !3
  store ptr %1, ptr %6, align 8, !tbaa !125
  store ptr %2, ptr %7, align 8, !tbaa !8
  call void @llvm.lifetime.start.p0(i64 4, ptr %8) #11
  store i32 -28800, ptr %8, align 4, !tbaa !10
  call void @llvm.lifetime.start.p0(i64 8, ptr %9) #11
  %11 = load ptr, ptr %5, align 8, !tbaa !3
  %12 = getelementptr inbounds nuw %struct.mbedtls_ssl_context, ptr %11, i32 0, i32 16
  %13 = load ptr, ptr %12, align 8, !tbaa !48
  %14 = getelementptr inbounds nuw %struct.mbedtls_ssl_handshake_params, ptr %13, i32 0, i32 24
  %15 = load ptr, ptr %6, align 8, !tbaa !125
  %16 = load ptr, ptr %7, align 8, !tbaa !8
  %17 = call i32 @mbedtls_dhm_read_params(ptr noundef %14, ptr noundef %15, ptr noundef %16)
  store i32 %17, ptr %8, align 4, !tbaa !10
  %18 = icmp ne i32 %17, 0
  br i1 %18, label %19, label %23

19:                                               ; preds = %3
  %20 = load ptr, ptr %5, align 8, !tbaa !3
  %21 = load i32, ptr %8, align 4, !tbaa !10
  call void @mbedtls_debug_print_ret(ptr noundef %20, i32 noundef 2, ptr noundef @.str, i32 noundef 1687, ptr noundef @.str.94, i32 noundef %21)
  %22 = load i32, ptr %8, align 4, !tbaa !10
  store i32 %22, ptr %4, align 4
  store i32 1, ptr %10, align 4
  br label %65

23:                                               ; preds = %3
  %24 = load ptr, ptr %5, align 8, !tbaa !3
  %25 = getelementptr inbounds nuw %struct.mbedtls_ssl_context, ptr %24, i32 0, i32 16
  %26 = load ptr, ptr %25, align 8, !tbaa !48
  %27 = getelementptr inbounds nuw %struct.mbedtls_ssl_handshake_params, ptr %26, i32 0, i32 24
  %28 = call i64 @mbedtls_dhm_get_bitlen(ptr noundef %27)
  store i64 %28, ptr %9, align 8, !tbaa !14
  %29 = load i64, ptr %9, align 8, !tbaa !14
  %30 = load ptr, ptr %5, align 8, !tbaa !3
  %31 = getelementptr inbounds nuw %struct.mbedtls_ssl_context, ptr %30, i32 0, i32 0
  %32 = load ptr, ptr %31, align 8, !tbaa !25
  %33 = getelementptr inbounds nuw %struct.mbedtls_ssl_config, ptr %32, i32 0, i32 59
  %34 = load i32, ptr %33, align 4, !tbaa !130
  %35 = zext i32 %34 to i64
  %36 = icmp ult i64 %29, %35
  br i1 %36, label %37, label %45

37:                                               ; preds = %23
  %38 = load ptr, ptr %5, align 8, !tbaa !3
  %39 = load i64, ptr %9, align 8, !tbaa !14
  %40 = load ptr, ptr %5, align 8, !tbaa !3
  %41 = getelementptr inbounds nuw %struct.mbedtls_ssl_context, ptr %40, i32 0, i32 0
  %42 = load ptr, ptr %41, align 8, !tbaa !25
  %43 = getelementptr inbounds nuw %struct.mbedtls_ssl_config, ptr %42, i32 0, i32 59
  %44 = load i32, ptr %43, align 4, !tbaa !130
  call void (ptr, i32, ptr, i32, ptr, ...) @mbedtls_debug_print_msg(ptr noundef %38, i32 noundef 1, ptr noundef @.str, i32 noundef 1695, ptr noundef @.str.95, i64 noundef %39, i32 noundef %44)
  store i32 -28160, ptr %4, align 4
  store i32 1, ptr %10, align 4
  br label %65

45:                                               ; preds = %23
  %46 = load ptr, ptr %5, align 8, !tbaa !3
  %47 = load ptr, ptr %5, align 8, !tbaa !3
  %48 = getelementptr inbounds nuw %struct.mbedtls_ssl_context, ptr %47, i32 0, i32 16
  %49 = load ptr, ptr %48, align 8, !tbaa !48
  %50 = getelementptr inbounds nuw %struct.mbedtls_ssl_handshake_params, ptr %49, i32 0, i32 24
  %51 = getelementptr inbounds nuw %struct.mbedtls_dhm_context, ptr %50, i32 0, i32 0
  call void @mbedtls_debug_print_mpi(ptr noundef %46, i32 noundef 3, ptr noundef @.str, i32 noundef 1699, ptr noundef @.str.96, ptr noundef %51)
  %52 = load ptr, ptr %5, align 8, !tbaa !3
  %53 = load ptr, ptr %5, align 8, !tbaa !3
  %54 = getelementptr inbounds nuw %struct.mbedtls_ssl_context, ptr %53, i32 0, i32 16
  %55 = load ptr, ptr %54, align 8, !tbaa !48
  %56 = getelementptr inbounds nuw %struct.mbedtls_ssl_handshake_params, ptr %55, i32 0, i32 24
  %57 = getelementptr inbounds nuw %struct.mbedtls_dhm_context, ptr %56, i32 0, i32 1
  call void @mbedtls_debug_print_mpi(ptr noundef %52, i32 noundef 3, ptr noundef @.str, i32 noundef 1700, ptr noundef @.str.97, ptr noundef %57)
  %58 = load ptr, ptr %5, align 8, !tbaa !3
  %59 = load ptr, ptr %5, align 8, !tbaa !3
  %60 = getelementptr inbounds nuw %struct.mbedtls_ssl_context, ptr %59, i32 0, i32 16
  %61 = load ptr, ptr %60, align 8, !tbaa !48
  %62 = getelementptr inbounds nuw %struct.mbedtls_ssl_handshake_params, ptr %61, i32 0, i32 24
  %63 = getelementptr inbounds nuw %struct.mbedtls_dhm_context, ptr %62, i32 0, i32 4
  call void @mbedtls_debug_print_mpi(ptr noundef %58, i32 noundef 3, ptr noundef @.str, i32 noundef 1701, ptr noundef @.str.98, ptr noundef %63)
  %64 = load i32, ptr %8, align 4, !tbaa !10
  store i32 %64, ptr %4, align 4
  store i32 1, ptr %10, align 4
  br label %65

65:                                               ; preds = %45, %37, %19
  call void @llvm.lifetime.end.p0(i64 8, ptr %9) #11
  call void @llvm.lifetime.end.p0(i64 4, ptr %8) #11
  %66 = load i32, ptr %4, align 4
  ret i32 %66
}