; Function Attrs: nounwind uwtable
define internal fastcc i32 @ssl_parse_server_dh_params(ptr noundef %0, ptr noundef nonnull %1, ptr noundef %2) unnamed_addr #0 {
  %4 = getelementptr inbounds nuw i8, ptr %0, i64 112
  %5 = load ptr, ptr %4, align 8, !tbaa !44
  %6 = getelementptr inbounds nuw i8, ptr %5, i64 120
  %7 = tail call i32 @mbedtls_dhm_read_params(ptr noundef nonnull %6, ptr noundef nonnull %1, ptr noundef %2) #14
  %.not = icmp eq i32 %7, 0
  br i1 %.not, label %9, label %8

8:                                                ; preds = %3
  tail call void @mbedtls_debug_print_ret(ptr noundef nonnull %0, i32 noundef 2, ptr noundef nonnull @.str, i32 noundef 1687, ptr noundef nonnull @.str.94, i32 noundef %7) #14
  br label %26

9:                                                ; preds = %3
  %10 = load ptr, ptr %4, align 8, !tbaa !44
  %11 = getelementptr inbounds nuw i8, ptr %10, i64 120
  %12 = tail call i64 @mbedtls_dhm_get_bitlen(ptr noundef nonnull %11) #14
  %13 = load ptr, ptr %0, align 8, !tbaa !19
  %14 = getelementptr inbounds nuw i8, ptr %13, i64 364
  %15 = load i32, ptr %14, align 4, !tbaa !124
  %16 = zext i32 %15 to i64
  %17 = icmp ult i64 %12, %16
  br i1 %17, label %18, label %19

18:                                               ; preds = %9
  tail call void (ptr, i32, ptr, i32, ptr, ...) @mbedtls_debug_print_msg(ptr noundef nonnull %0, i32 noundef 1, ptr noundef nonnull @.str, i32 noundef 1695, ptr noundef nonnull @.str.95, i64 noundef %12, i32 noundef %15) #14
  br label %26

19:                                               ; preds = %9
  %20 = load ptr, ptr %4, align 8, !tbaa !44
  %21 = getelementptr inbounds nuw i8, ptr %20, i64 120
  tail call void @mbedtls_debug_print_mpi(ptr noundef nonnull %0, i32 noundef 3, ptr noundef nonnull @.str, i32 noundef 1699, ptr noundef nonnull @.str.96, ptr noundef nonnull %21) #14
  %22 = load ptr, ptr %4, align 8, !tbaa !44
  %23 = getelementptr inbounds nuw i8, ptr %22, i64 136
  tail call void @mbedtls_debug_print_mpi(ptr noundef nonnull %0, i32 noundef 3, ptr noundef nonnull @.str, i32 noundef 1700, ptr noundef nonnull @.str.97, ptr noundef nonnull %23) #14
  %24 = load ptr, ptr %4, align 8, !tbaa !44
  %25 = getelementptr inbounds nuw i8, ptr %24, i64 184
  tail call void @mbedtls_debug_print_mpi(ptr noundef nonnull %0, i32 noundef 3, ptr noundef nonnull @.str, i32 noundef 1701, ptr noundef nonnull @.str.98, ptr noundef nonnull %25) #14
  br label %26

26:                                               ; preds = %19, %18, %8
  %.0 = phi i32 [ %7, %8 ], [ -28160, %18 ], [ 0, %19 ]
  ret i32 %.0
}